target datalayout = "e-m:e-p270:32:32-p271:32:32-p272:64:64-i64:64-i128:128-f80:128-n8:16:32:64-S128"
target triple = "x86_64-pc-linux-gnu"

%struct.conf_method_st = type { ptr, ptr, ptr, ptr, ptr, ptr, ptr, ptr, ptr, ptr }
%struct.conf_st = type { ptr, ptr, ptr, i32, i32, ptr, ptr }

@default_CONF_method = internal global ptr null, align 8
@.str.1 = private unnamed_addr constant [34 x i8] c"../openssl/crypto/conf/conf_lib.c\00", align 1
@__func__.NCONF_dump_bio = private unnamed_addr constant [15 x i8] c"NCONF_dump_bio\00", align 1

; Function Attrs: nounwind uwtable
define i32 @NCONF_dump_bio(ptr noundef %0, ptr noundef %1) #0 {
  %3 = alloca i32, align 4
  %4 = alloca ptr, align 8
  %5 = alloca ptr, align 8
  store ptr %0, ptr %4, align 8, !tbaa !3
  store ptr %1, ptr %5, align 8, !tbaa !22
  %6 = load ptr, ptr %4, align 8, !tbaa !3
  %7 = icmp eq ptr %6, null
  br i1 %7, label %8, label %9

8:                                                ; preds = %2
  call void @ERR_new()
  call void @ERR_set_debug(ptr noundef @.str.1, i32 noundef 399, ptr noundef @__func__.NCONF_dump_bio)
  call void (i32, i32, ptr, ...) @ERR_set_error(i32 noundef 14, i32 noundef 105, ptr noundef null)
  store i32 0, ptr %3, align 4
  br label %18

9:                                                ; preds = %2
  %10 = load ptr, ptr %4, align 8, !tbaa !3
  %11 = getelementptr inbounds nuw %struct.conf_st, ptr %10, i32 0, i32 0
  %12 = load ptr, ptr %11, align 8, !tbaa !27
  %13 = getelementptr inbounds nuw %struct.conf_method_st, ptr %12, i32 0, i32 6
  %14 = load ptr, ptr %13, align 8, !tbaa !38
  %15 = load ptr, ptr %4, align 8, !tbaa !3
  %16 = load ptr, ptr %5, align 8, !tbaa !22
  %17 = call i32 %14(ptr noundef %15, ptr noundef %16)
  store i32 %17, ptr %3, align 4
  br label %18

18:                                               ; preds = %9, %8
  %19 = load i32, ptr %3, align 4
  ret i32 %19
}

; Function Attrs: nounwind uwtable
define void @CONF_set_nconf(ptr noundef %0, ptr noundef %1) #0 {
  %3 = alloca ptr, align 8
  %4 = alloca ptr, align 8
  store ptr %0, ptr %3, align 8, !tbaa !3
  store ptr %1, ptr %4, align 8, !tbaa !8
  %5 = load ptr, ptr @default_CONF_method, align 8, !tbaa !10
  %6 = icmp eq ptr %5, null
  br i1 %6, label %7, label %9

7:                                                ; preds = %2
  %8 = call ptr @NCONF_default()
  store ptr %8, ptr @default_CONF_method, align 8, !tbaa !10
  br label %9

9:                                                ; preds = %7, %2
  %10 = load ptr, ptr @default_CONF_method, align 8, !tbaa !10
  %11 = getelementptr inbounds nuw %struct.conf_method_st, ptr %10, i32 0, i32 2
  %12 = load ptr, ptr %11, align 8, !tbaa !12
  %13 = load ptr, ptr %3, align 8, !tbaa !3
  %14 = call i32 %12(ptr noundef %13)
  %15 = load ptr, ptr %4, align 8, !tbaa !8
  %16 = load ptr, ptr %3, align 8, !tbaa !3
  %17 = getelementptr inbounds nuw %struct.conf_st, ptr %16, i32 0, i32 2
  store ptr %15, ptr %17, align 8, !tbaa !15
  ret void
}

; Function Attrs: nounwind uwtable
define i32 @CONF_dump_bio(ptr noundef %0, ptr noundef %1) #0 {
  %3 = alloca ptr, align 8
  %4 = alloca ptr, align 8
  %5 = alloca %struct.conf_st, align 8
  store ptr %0, ptr %3, align 8, !tbaa !8
  store ptr %1, ptr %4, align 8, !tbaa !22
  call void @llvm.lifetime.start.p0(i64 48, ptr %5) #8
  %6 = load ptr, ptr %3, align 8, !tbaa !8
  call void @CONF_set_nconf(ptr noundef %5, ptr noundef %6)
  %7 = load ptr, ptr %4, align 8, !tbaa !22
  %8 = call i32 @NCONF_dump_bio(ptr noundef %5, ptr noundef %7)
  call void @llvm.lifetime.end.p0(i64 48, ptr %5) #8
  ret i32 %8
}