; Function Attrs: nounwind uwtable
define i32 @CONF_dump_bio(ptr noundef %0, ptr noundef %1) local_unnamed_addr #0 {
  %3 = alloca %struct.conf_st, align 8
  call void @llvm.lifetime.start.p0(i64 48, ptr nonnull %3) #15
  %4 = load ptr, ptr @default_CONF_method, align 8, !tbaa !3
  %5 = icmp eq ptr %4, null
  br i1 %5, label %6, label %CONF_set_nconf.exit

6:                                                ; preds = %2
  %7 = tail call ptr @NCONF_default() #15
  store ptr %7, ptr @default_CONF_method, align 8, !tbaa !3
  br label %CONF_set_nconf.exit

CONF_set_nconf.exit:                              ; preds = %2, %6
  %8 = phi ptr [ %7, %6 ], [ %4, %2 ]
  %9 = getelementptr inbounds nuw i8, ptr %8, i64 16
  %10 = load ptr, ptr %9, align 8, !tbaa !8
  %11 = call i32 %10(ptr noundef nonnull %3) #15
  %12 = getelementptr inbounds nuw i8, ptr %3, i64 16
  store ptr %0, ptr %12, align 8, !tbaa !11
  %13 = load ptr, ptr %3, align 8, !tbaa !16
  %14 = getelementptr inbounds nuw i8, ptr %13, i64 48
  %15 = load ptr, ptr %14, align 8, !tbaa !26
  %16 = call i32 %15(ptr noundef nonnull %3, ptr noundef %1) #15
  call void @llvm.lifetime.end.p0(i64 48, ptr nonnull %3) #15
  ret i32 %16
}